; Function Attrs: mustprogress nounwind uwtable
define internal void @_ZN4node9inspector12_GLOBAL__N_120JSBindingsConnectionINS1_15LocalConnectionEED0Ev(ptr noundef nonnull align 8 dereferenceable(72) %this) unnamed_addr #3 align 2 {
entry:
  store ptr getelementptr inbounds ({ [20 x ptr] }, ptr @_ZTVN4node9inspector12_GLOBAL__N_120JSBindingsConnectionINS1_15LocalConnectionEEE, i64 0, i32 0, i64 2), ptr %this, align 8
  %callback_.i = getelementptr inbounds i8, ptr %this, i64 64
  %0 = load ptr, ptr %callback_.i, align 8
  %cmp.i.i.i = icmp eq ptr %0, null
  br i1 %cmp.i.i.i, label %_ZN2v814PersistentBaseINS_8FunctionEE5ResetEv.exit.i, label %if.end.i.i

if.end.i.i:                                       ; preds = %entry
  tail call void @_ZN2v812api_internal13DisposeGlobalEPm(ptr noundef nonnull %0) #21
  store ptr null, ptr %callback_.i, align 8
  br label %_ZN2v814PersistentBaseINS_8FunctionEE5ResetEv.exit.i

_ZN2v814PersistentBaseINS_8FunctionEE5ResetEv.exit.i: ; preds = %if.end.i.i, %entry
  %session_.i = getelementptr inbounds i8, ptr %this, i64 56
  %1 = load ptr, ptr %session_.i, align 8
  %cmp.not.i.i = icmp eq ptr %1, null
  br i1 %cmp.not.i.i, label %_ZN4node9inspector12_GLOBAL__N_120JSBindingsConnectionINS1_15LocalConnectionEED2Ev.exit, label %_ZNKSt14default_deleteIN4node9inspector16InspectorSessionEEclEPS2_.exit.i.i

_ZNKSt14default_deleteIN4node9inspector16InspectorSessionEEclEPS2_.exit.i.i: ; preds = %_ZN2v814PersistentBaseINS_8FunctionEE5ResetEv.exit.i
  %vtable.i.i.i = load ptr, ptr %1, align 8
  %vfn.i.i.i = getelementptr inbounds i8, ptr %vtable.i.i.i, i64 8
  %2 = load ptr, ptr %vfn.i.i.i, align 8
  tail call void %2(ptr noundef nonnull align 8 dereferenceable(8) %1) #21
  br label %_ZN4node9inspector12_GLOBAL__N_120JSBindingsConnectionINS1_15LocalConnectionEED2Ev.exit

_ZN4node9inspector12_GLOBAL__N_120JSBindingsConnectionINS1_15LocalConnectionEED2Ev.exit: ; preds = %_ZN2v814PersistentBaseINS_8FunctionEE5ResetEv.exit.i, %_ZNKSt14default_deleteIN4node9inspector16InspectorSessionEEclEPS2_.exit.i.i
  store ptr null, ptr %session_.i, align 8
  tail call void @_ZN4node9AsyncWrapD2Ev(ptr noundef nonnull align 8 dereferenceable(56) %this) #21
  tail call void @_ZdlPv(ptr noundef nonnull %this) #20
  ret void
}